(dp0
S'level1'
p1
S'06a95efef9284ff840935917241c03dc50e92d398aa3158065ee879c3d1f8c919cdf570aa110ddd1cbe48df1bff1d03eee7da314ca35a7daceb26eeb2859abe0'
p2
sS'level2'
p3
S'f14c80db7d75bbb0716dbfa20f3563ba21b75114583d7a1b54b242a3292985ba19cb5d0ae1b8e586a8babde8fbce5bbcbbf39a5a86135365e14485a34d2ada3f'
p4
sS'level3'
p5
S'2ea0bcd66f3e312947e531c2fd90ff0b3d5c6fda367ea6c2a01401e55b88a7a0cd6b77790fc7ba649295b68729efcf577fca65ab63afccd92ca824c9e9c8b415'
p6
s.